; Function Attrs: mustprogress uwtable
define dso_local void @_ZN5draco16ReadMeshFromFileERKNSt7__cxx1112basic_stringIcSt11char_traitsIcESaIcEEE(ptr dead_on_unwind noalias writable sret(%"class.draco::StatusOr") align 8 %0, ptr noundef nonnull align 8 dereferenceable(32) %1) local_unnamed_addr #3 personality ptr @__gxx_personality_v0 {
  %3 = alloca %"class.draco::Options", align 8
  call void @llvm.lifetime.start.p0(i64 48, ptr nonnull %3) #18
  %4 = getelementptr inbounds nuw i8, ptr %3, i64 8
  store i32 0, ptr %4, align 8, !tbaa !4
  %5 = getelementptr inbounds nuw i8, ptr %3, i64 16
  store ptr null, ptr %5, align 8, !tbaa !13
  %6 = getelementptr inbounds nuw i8, ptr %3, i64 24
  store ptr %4, ptr %6, align 8, !tbaa !14
  %7 = getelementptr inbounds nuw i8, ptr %3, i64 32
  store ptr %4, ptr %7, align 8, !tbaa !15
  %8 = getelementptr inbounds nuw i8, ptr %3, i64 40
  store i64 0, ptr %8, align 8, !tbaa !16
  invoke void @_ZN5draco16ReadMeshFromFileERKNSt7__cxx1112basic_stringIcSt11char_traitsIcESaIcEEERKNS_7OptionsEPSt6vectorIS5_SaIS5_EE(ptr dead_on_unwind writable sret(%"class.draco::StatusOr") align 8 %0, ptr noundef nonnull align 8 dereferenceable(32) %1, ptr noundef nonnull align 8 dereferenceable(48) %3, ptr noundef null)
          to label %9 unwind label %14

9:                                                ; preds = %2
  %10 = load ptr, ptr %5, align 8, !tbaa !13
  invoke void @_ZNSt8_Rb_treeINSt7__cxx1112basic_stringIcSt11char_traitsIcESaIcEEESt4pairIKS5_S5_ESt10_Select1stIS8_ESt4lessIS5_ESaIS8_EE8_M_eraseEPSt13_Rb_tree_nodeIS8_E(ptr noundef nonnull align 8 dereferenceable(48) %3, ptr noundef %10)
          to label %_ZN5draco7OptionsD2Ev.exit unwind label %11

11:                                               ; preds = %9
  %12 = landingpad { ptr, i32 }
          catch ptr null
  %13 = extractvalue { ptr, i32 } %12, 0
  call void @__clang_call_terminate(ptr %13) #19
  unreachable

_ZN5draco7OptionsD2Ev.exit:                       ; preds = %9
  call void @llvm.lifetime.end.p0(i64 48, ptr nonnull %3) #18
  ret void

14:                                               ; preds = %2
  %15 = landingpad { ptr, i32 }
          cleanup
  call void @_ZN5draco7OptionsD2Ev(ptr noundef nonnull align 8 dereferenceable(48) %3) #18
  call void @llvm.lifetime.end.p0(i64 48, ptr nonnull %3) #18
  resume { ptr, i32 } %15
}